target datalayout = "e-m:e-p270:32:32-p271:32:32-p272:64:64-i64:64-i128:128-f80:128-n8:16:32:64-S128"
target triple = "x86_64-pc-linux-gnu"

@.str.1 = private unnamed_addr constant [42 x i8] c"../cpython/Modules/_hacl/Hacl_Hash_SHA3.c\00", align 1
@stderr = external global ptr, align 8
@.str.2 = private unnamed_addr constant [35 x i8] c"KaRaMeL incomplete match at %s:%d\0A\00", align 1

; Function Attrs: nounwind uwtable
define internal i32 @block_len(i8 noundef zeroext %0) #0 {
  %2 = alloca i32, align 4
  %3 = alloca i8, align 1
  store i8 %0, ptr %3, align 1, !tbaa !3
  %4 = load i8, ptr %3, align 1, !tbaa !3
  %5 = zext i8 %4 to i32
  switch i32 %5, label %12 [
    i32 9, label %6
    i32 8, label %7
    i32 10, label %8
    i32 11, label %9
    i32 12, label %10
    i32 13, label %11
  ]

6:                                                ; preds = %1
  store i32 144, ptr %2, align 4
  br label %15

7:                                                ; preds = %1
  store i32 136, ptr %2, align 4
  br label %15

8:                                                ; preds = %1
  store i32 104, ptr %2, align 4
  br label %15

9:                                                ; preds = %1
  store i32 72, ptr %2, align 4
  br label %15

10:                                               ; preds = %1
  store i32 168, ptr %2, align 4
  br label %15

11:                                               ; preds = %1
  store i32 136, ptr %2, align 4
  br label %15

12:                                               ; preds = %1
  %13 = load ptr, ptr @stderr, align 8, !tbaa !15
  %14 = call i32 (ptr, ptr, ...) @fprintf(ptr noundef %13, ptr noundef @.str.2, ptr noundef @.str.1, i32 noundef 203) #10
  call void @exit(i32 noundef 253) #11
  unreachable

15:                                               ; preds = %11, %10, %9, %8, %7, %6
  %16 = load i32, ptr %2, align 4
  ret i32 %16
}

; Function Attrs: nounwind uwtable
define hidden void @python_hashlib_Hacl_Hash_SHA3_update_multi_sha3(i8 noundef zeroext %0, ptr noundef %1, ptr noundef %2, i32 noundef %3) #0 {
  %5 = alloca i8, align 1
  %6 = alloca ptr, align 8
  %7 = alloca ptr, align 8
  %8 = alloca i32, align 4
  %9 = alloca i32, align 4
  %10 = alloca i32, align 4
  %11 = alloca [256 x i8], align 16
  %12 = alloca ptr, align 8
  %13 = alloca ptr, align 8
  %14 = alloca ptr, align 8
  %15 = alloca ptr, align 8
  %16 = alloca i32, align 4
  store i8 %0, ptr %5, align 1, !tbaa !3
  store ptr %1, ptr %6, align 8, !tbaa !6
  store ptr %2, ptr %7, align 8, !tbaa !9
  store i32 %3, ptr %8, align 4, !tbaa !11
  call void @llvm.lifetime.start.p0(i64 4, ptr %9) #10
  %17 = load i8, ptr %5, align 1, !tbaa !3
  %18 = call i32 @block_len(i8 noundef zeroext %17)
  %19 = load i32, ptr %8, align 4, !tbaa !11
  %20 = mul i32 %18, %19
  store i32 %20, ptr %9, align 4, !tbaa !11
  call void @llvm.lifetime.start.p0(i64 4, ptr %10) #10
  store i32 0, ptr %10, align 4, !tbaa !11
  br label %21

21:                                               ; preds = %50, %4
  %22 = load i32, ptr %10, align 4, !tbaa !11
  %23 = load i32, ptr %9, align 4, !tbaa !11
  %24 = load i8, ptr %5, align 1, !tbaa !3
  %25 = call i32 @block_len(i8 noundef zeroext %24)
  %26 = udiv i32 %23, %25
  %27 = icmp ult i32 %22, %26
  br i1 %27, label %29, label %28

28:                                               ; preds = %21
  call void @llvm.lifetime.end.p0(i64 4, ptr %10) #10
  br label %53

29:                                               ; preds = %21
  call void @llvm.lifetime.start.p0(i64 256, ptr %11) #10
  call void @llvm.memset.p0.i64(ptr align 16 %11, i8 0, i64 256, i1 false)
  call void @llvm.lifetime.start.p0(i64 8, ptr %12) #10
  %30 = getelementptr inbounds [256 x i8], ptr %11, i64 0, i64 0
  store ptr %30, ptr %12, align 8, !tbaa !9
  call void @llvm.lifetime.start.p0(i64 8, ptr %13) #10
  %31 = load ptr, ptr %7, align 8, !tbaa !9
  store ptr %31, ptr %13, align 8, !tbaa !9
  call void @llvm.lifetime.start.p0(i64 8, ptr %14) #10
  %32 = load ptr, ptr %12, align 8, !tbaa !9
  store ptr %32, ptr %14, align 8, !tbaa !9
  call void @llvm.lifetime.start.p0(i64 8, ptr %15) #10
  %33 = load ptr, ptr %13, align 8, !tbaa !9
  %34 = load i32, ptr %10, align 4, !tbaa !11
  %35 = load i8, ptr %5, align 1, !tbaa !3
  %36 = call i32 @block_len(i8 noundef zeroext %35)
  %37 = mul i32 %34, %36
  %38 = zext i32 %37 to i64
  %39 = getelementptr i8, ptr %33, i64 %38
  store ptr %39, ptr %15, align 8, !tbaa !9
  %40 = load ptr, ptr %14, align 8, !tbaa !9
  %41 = load ptr, ptr %15, align 8, !tbaa !9
  %42 = load i8, ptr %5, align 1, !tbaa !3
  %43 = call i32 @block_len(i8 noundef zeroext %42)
  %44 = zext i32 %43 to i64
  %45 = mul i64 %44, 1
  call void @llvm.memcpy.p0.p0.i64(ptr align 1 %40, ptr align 1 %41, i64 %45, i1 false)
  call void @llvm.lifetime.start.p0(i64 4, ptr %16) #10
  %46 = load i8, ptr %5, align 1, !tbaa !3
  %47 = call i32 @block_len(i8 noundef zeroext %46)
  store i32 %47, ptr %16, align 4, !tbaa !11
  %48 = load ptr, ptr %12, align 8, !tbaa !9
  %49 = load ptr, ptr %6, align 8, !tbaa !6
  call void @absorb_inner_32(ptr noundef %48, ptr noundef %49)
  call void @llvm.lifetime.end.p0(i64 4, ptr %16) #10
  call void @llvm.lifetime.end.p0(i64 8, ptr %15) #10
  call void @llvm.lifetime.end.p0(i64 8, ptr %14) #10
  call void @llvm.lifetime.end.p0(i64 8, ptr %13) #10
  call void @llvm.lifetime.end.p0(i64 8, ptr %12) #10
  call void @llvm.lifetime.end.p0(i64 256, ptr %11) #10
  br label %50

50:                                               ; preds = %29
  %51 = load i32, ptr %10, align 4, !tbaa !11
  %52 = add i32 %51, 1
  store i32 %52, ptr %10, align 4, !tbaa !11
  br label %21, !llvm.loop !13

53:                                               ; preds = %28
  call void @llvm.lifetime.end.p0(i64 4, ptr %9) #10
  ret void
}