; Function Attrs: nofree nounwind uwtable
define hidden void @python_hashlib_Hacl_Hash_SHA3_update_multi_sha3(i8 noundef zeroext %0, ptr noundef %1, ptr noundef readonly captures(none) %2, i32 noundef %3) local_unnamed_addr #0 {
  %5 = alloca [256 x i8], align 16
  %switch.tableidx = add i8 %0, -8
  %6 = icmp ult i8 %switch.tableidx, 6
  br i1 %6, label %switch.lookup, label %7

7:                                                ; preds = %4
  %8 = load ptr, ptr @stderr, align 8, !tbaa !3
  %9 = tail call i32 (ptr, ptr, ...) @fprintf(ptr noundef %8, ptr noundef nonnull @.str.2, ptr noundef nonnull @.str.1, i32 noundef 203) #17
  tail call void @exit(i32 noundef 253) #18
  unreachable

switch.lookup:                                    ; preds = %4
  %10 = zext nneg i8 %switch.tableidx to i64
  %switch.gep = getelementptr inbounds nuw [6 x i32], ptr @switch.table.python_hashlib_Hacl_Hash_SHA3_block_len, i64 0, i64 %10
  %switch.load = load i32, ptr %switch.gep, align 4
  %11 = mul i32 %switch.load, %3
  %switch.tableidx48 = add nsw i8 %0, -8
  %12 = zext nneg i8 %switch.tableidx48 to i64
  %switch.gep49 = getelementptr inbounds nuw [6 x i32], ptr @switch.table.python_hashlib_Hacl_Hash_SHA3_block_len, i64 0, i64 %12
  %switch.load50 = load i32, ptr %switch.gep49, align 4
  %13 = udiv i32 %11, %switch.load50
  %14 = zext nneg i32 %13 to i64
  br label %switch.lookup47

switch.lookup47:                                  ; preds = %block_len.exit23, %switch.lookup
  %indvars.iv = phi i64 [ %indvars.iv.next, %block_len.exit23 ], [ 0, %switch.lookup ]
  %15 = icmp samesign ult i64 %indvars.iv, %14
  br i1 %15, label %17, label %16

16:                                               ; preds = %switch.lookup47
  ret void

17:                                               ; preds = %switch.lookup47
  call void @llvm.lifetime.start.p0(i64 256, ptr nonnull %5) #19
  call void @llvm.memset.p0.i64(ptr noundef nonnull align 16 dereferenceable(256) %5, i8 0, i64 256, i1 false)
  switch i8 %0, label %29 [
    i8 9, label %block_len.exit19.thread
    i8 8, label %block_len.exit19
    i8 10, label %block_len.exit19.thread25
    i8 11, label %block_len.exit19.thread27
    i8 12, label %block_len.exit19.thread29
    i8 13, label %block_len.exit19
  ]

block_len.exit19.thread:                          ; preds = %17
  %18 = mul nuw nsw i64 %indvars.iv, 144
  %19 = and i64 %18, 4294967280
  %20 = getelementptr i8, ptr %2, i64 %19
  br label %block_len.exit21.thread

block_len.exit19.thread25:                        ; preds = %17
  %21 = mul nuw nsw i64 %indvars.iv, 104
  %22 = and i64 %21, 4294967288
  %23 = getelementptr i8, ptr %2, i64 %22
  br label %block_len.exit21.thread34

block_len.exit19.thread27:                        ; preds = %17
  %24 = mul nuw nsw i64 %indvars.iv, 72
  %25 = getelementptr i8, ptr %2, i64 %24
  br label %block_len.exit21.thread38

block_len.exit19.thread29:                        ; preds = %17
  %26 = mul nuw nsw i64 %indvars.iv, 168
  %27 = and i64 %26, 4294967288
  %28 = getelementptr i8, ptr %2, i64 %27
  br label %block_len.exit21.thread42

29:                                               ; preds = %17
  %30 = load ptr, ptr @stderr, align 8, !tbaa !3
  %31 = tail call i32 (ptr, ptr, ...) @fprintf(ptr noundef %30, ptr noundef nonnull @.str.2, ptr noundef nonnull @.str.1, i32 noundef 203) #17
  tail call void @exit(i32 noundef 253) #18
  unreachable

block_len.exit19:                                 ; preds = %17, %17
  %32 = mul nuw nsw i64 %indvars.iv, 136
  %33 = and i64 %32, 4294967288
  %34 = getelementptr i8, ptr %2, i64 %33
  switch i8 %0, label %default.unreachable44 [
    i8 9, label %block_len.exit21.thread
    i8 8, label %block_len.exit21
    i8 10, label %block_len.exit21.thread34
    i8 11, label %block_len.exit21.thread38
    i8 12, label %block_len.exit21.thread42
    i8 13, label %block_len.exit21
  ]

default.unreachable44:                            ; preds = %block_len.exit19
  unreachable

block_len.exit21.thread:                          ; preds = %block_len.exit19.thread, %block_len.exit19
  %.ph = phi ptr [ %20, %block_len.exit19.thread ], [ %34, %block_len.exit19 ]
  call void @llvm.memcpy.p0.p0.i64(ptr noundef nonnull align 16 dereferenceable(144) %5, ptr noundef nonnull align 1 dereferenceable(144) %.ph, i64 144, i1 false)
  br label %block_len.exit23

block_len.exit21.thread34:                        ; preds = %block_len.exit19.thread25, %block_len.exit19
  %.ph33 = phi ptr [ %23, %block_len.exit19.thread25 ], [ %34, %block_len.exit19 ]
  call void @llvm.memcpy.p0.p0.i64(ptr noundef nonnull align 16 dereferenceable(104) %5, ptr noundef nonnull align 1 dereferenceable(104) %.ph33, i64 104, i1 false)
  br label %block_len.exit23

block_len.exit21.thread38:                        ; preds = %block_len.exit19.thread27, %block_len.exit19
  %.ph37 = phi ptr [ %25, %block_len.exit19.thread27 ], [ %34, %block_len.exit19 ]
  call void @llvm.memcpy.p0.p0.i64(ptr noundef nonnull align 16 dereferenceable(72) %5, ptr noundef nonnull align 1 dereferenceable(72) %.ph37, i64 72, i1 false)
  br label %block_len.exit23

block_len.exit21.thread42:                        ; preds = %block_len.exit19.thread29, %block_len.exit19
  %.ph41 = phi ptr [ %28, %block_len.exit19.thread29 ], [ %34, %block_len.exit19 ]
  call void @llvm.memcpy.p0.p0.i64(ptr noundef nonnull align 16 dereferenceable(168) %5, ptr noundef nonnull align 1 dereferenceable(168) %.ph41, i64 168, i1 false)
  br label %block_len.exit23

block_len.exit21:                                 ; preds = %block_len.exit19, %block_len.exit19
  call void @llvm.memcpy.p0.p0.i64(ptr noundef nonnull align 16 dereferenceable(136) %5, ptr noundef nonnull align 1 dereferenceable(136) %34, i64 136, i1 false)
  br label %block_len.exit23

block_len.exit23:                                 ; preds = %block_len.exit21, %block_len.exit21.thread42, %block_len.exit21.thread38, %block_len.exit21.thread34, %block_len.exit21.thread
  call fastcc void @absorb_inner_32(ptr noundef %5, ptr noundef %1)
  call void @llvm.lifetime.end.p0(i64 256, ptr nonnull %5) #19
  %indvars.iv.next = add nuw nsw i64 %indvars.iv, 1
  br label %switch.lookup47, !llvm.loop !8
}